; Function Attrs: mustprogress nofree norecurse nosync nounwind willreturn memory(argmem: readwrite) uwtable
define hidden void @mbedtls_mpi_swap(ptr noundef captures(none) %0, ptr noundef captures(none) %1) local_unnamed_addr #7 {
  %3 = alloca %struct.mbedtls_mpi, align 8
  call void @llvm.lifetime.start.p0(i64 24, ptr nonnull %3)
  call void @llvm.memcpy.p0.p0.i64(ptr noundef nonnull align 8 dereferenceable(24) %3, ptr noundef nonnull align 8 dereferenceable(24) %0, i64 24, i1 false)
  tail call void @llvm.memcpy.p0.p0.i64(ptr noundef nonnull align 8 dereferenceable(24) %0, ptr noundef nonnull align 8 dereferenceable(24) %1, i64 24, i1 false)
  call void @llvm.memcpy.p0.p0.i64(ptr noundef nonnull align 8 dereferenceable(24) %1, ptr noundef nonnull align 8 dereferenceable(24) %3, i64 24, i1 false)
  call void @llvm.lifetime.end.p0(i64 24, ptr nonnull %3)
  ret void
}